
bootloader.elf:     file format elf32-littlearm


Disassembly of section .isr_vector:

08000000 <vector_table>:
 8000000:	20020000 			@ <UNDEFINED> instruction: 20020000
 8000004:	08000101 			@ <UNDEFINED> instruction: 08000101
 8000008:	080000f9 			@ <UNDEFINED> instruction: 080000f9
 800000c:	080000f9 			@ <UNDEFINED> instruction: 080000f9
 8000010:	080000f9 			@ <UNDEFINED> instruction: 080000f9
 8000014:	080000f9 			@ <UNDEFINED> instruction: 080000f9
 8000018:	080000f9 			@ <UNDEFINED> instruction: 080000f9
	...
 800002c:	080000f9 			@ <UNDEFINED> instruction: 080000f9
 8000030:	080000f9 			@ <UNDEFINED> instruction: 080000f9
 8000034:	00000000 			@ <UNDEFINED> instruction: 00000000
 8000038:	080000f9 			@ <UNDEFINED> instruction: 080000f9
 800003c:	08000041 			@ <UNDEFINED> instruction: 08000041

Disassembly of section .text:

08000040 <sys_tick_handler>:
 8000040:	b480      	push	{r7}
 8000042:	af00      	add	r7, sp, #0
 8000044:	4b06      	ldr	r3, [pc, #24]	@ (8000060 <sys_tick_handler+0x20>)
 8000046:	e9d3 2300 	ldrd	r2, r3, [r3]
 800004a:	1c50      	adds	r0, r2, #1
 800004c:	f143 0100 	adc.w	r1, r3, #0
 8000050:	4b03      	ldr	r3, [pc, #12]	@ (8000060 <sys_tick_handler+0x20>)
 8000052:	e9c3 0100 	strd	r0, r1, [r3]
 8000056:	bf00      	nop
 8000058:	46bd      	mov	sp, r7
 800005a:	f85d 7b04 	ldr.w	r7, [sp], #4
 800005e:	4770      	bx	lr
 8000060:	20000010 			@ <UNDEFINED> instruction: 20000010

08000064 <rcc_setup>:
 8000064:	b580      	push	{r7, lr}
 8000066:	af00      	add	r7, sp, #0
 8000068:	4802      	ldr	r0, [pc, #8]	@ (8000074 <rcc_setup+0x10>)
 800006a:	f000 f999 	bl	80003a0 <rcc_clock_setup_pll>
 800006e:	bf00      	nop
 8000070:	bd80      	pop	{r7, pc}
 8000072:	bf00      	nop
 8000074:	08000580 			@ <UNDEFINED> instruction: 08000580

08000078 <systick_setup>:
 8000078:	b580      	push	{r7, lr}
 800007a:	af00      	add	r7, sp, #0
 800007c:	4905      	ldr	r1, [pc, #20]	@ (8000094 <systick_setup+0x1c>)
 800007e:	f44f 707a 	mov.w	r0, #1000	@ 0x3e8
 8000082:	f000 fa09 	bl	8000498 <systick_set_frequency>
 8000086:	f000 fa2a 	bl	80004de <systick_counter_enable>
 800008a:	f000 fa21 	bl	80004d0 <systick_interrupt_enable>
 800008e:	bf00      	nop
 8000090:	bd80      	pop	{r7, pc}
 8000092:	bf00      	nop
 8000094:	0501bd00 			@ <UNDEFINED> instruction: 0501bd00

08000098 <system_get_ticks>:
 8000098:	b480      	push	{r7}
 800009a:	af00      	add	r7, sp, #0
 800009c:	4b04      	ldr	r3, [pc, #16]	@ (80000b0 <system_get_ticks+0x18>)
 800009e:	e9d3 2300 	ldrd	r2, r3, [r3]
 80000a2:	4610      	mov	r0, r2
 80000a4:	4619      	mov	r1, r3
 80000a6:	46bd      	mov	sp, r7
 80000a8:	f85d 7b04 	ldr.w	r7, [sp], #4
 80000ac:	4770      	bx	lr
 80000ae:	bf00      	nop
 80000b0:	20000010 			@ <UNDEFINED> instruction: 20000010

080000b4 <system_setup>:
 80000b4:	b580      	push	{r7, lr}
 80000b6:	af00      	add	r7, sp, #0
 80000b8:	f7ff ffd4 	bl	8000064 <rcc_setup>
 80000bc:	f7ff ffdc 	bl	8000078 <systick_setup>
 80000c0:	bf00      	nop
 80000c2:	bd80      	pop	{r7, pc}

080000c4 <jump_to_main>:
 80000c4:	b580      	push	{r7, lr}
 80000c6:	b084      	sub	sp, #16
 80000c8:	af00      	add	r7, sp, #0
 80000ca:	4b06      	ldr	r3, [pc, #24]	@ (80000e4 <jump_to_main+0x20>)
 80000cc:	60fb      	str	r3, [r7, #12]
 80000ce:	68fb      	ldr	r3, [r7, #12]
 80000d0:	681b      	ldr	r3, [r3, #0]
 80000d2:	60bb      	str	r3, [r7, #8]
 80000d4:	68bb      	ldr	r3, [r7, #8]
 80000d6:	607b      	str	r3, [r7, #4]
 80000d8:	687b      	ldr	r3, [r7, #4]
 80000da:	4798      	blx	r3
 80000dc:	bf00      	nop
 80000de:	3710      	adds	r7, #16
 80000e0:	46bd      	mov	sp, r7
 80000e2:	bd80      	pop	{r7, pc}
 80000e4:	08008004 			@ <UNDEFINED> instruction: 08008004

080000e8 <main>:
 80000e8:	b580      	push	{r7, lr}
 80000ea:	af00      	add	r7, sp, #0
 80000ec:	f7ff ffea 	bl	80000c4 <jump_to_main>
 80000f0:	2300      	movs	r3, #0
 80000f2:	4618      	mov	r0, r3
 80000f4:	bd80      	pop	{r7, pc}
 80000f6:	bf00      	nop

080000f8 <Default_Handler>:
 80000f8:	b480      	push	{r7}
 80000fa:	af00      	add	r7, sp, #0
 80000fc:	bf00      	nop
 80000fe:	e7fd      	b.n	80000fc <Default_Handler+0x4>

08000100 <Reset_Handler>:
 8000100:	b580      	push	{r7, lr}
 8000102:	b082      	sub	sp, #8
 8000104:	af00      	add	r7, sp, #0
 8000106:	4b10      	ldr	r3, [pc, #64]	@ (8000148 <Reset_Handler+0x48>)
 8000108:	607b      	str	r3, [r7, #4]
 800010a:	4b10      	ldr	r3, [pc, #64]	@ (800014c <Reset_Handler+0x4c>)
 800010c:	603b      	str	r3, [r7, #0]
 800010e:	e007      	b.n	8000120 <Reset_Handler+0x20>
 8000110:	687a      	ldr	r2, [r7, #4]
 8000112:	1d13      	adds	r3, r2, #4
 8000114:	607b      	str	r3, [r7, #4]
 8000116:	683b      	ldr	r3, [r7, #0]
 8000118:	1d19      	adds	r1, r3, #4
 800011a:	6039      	str	r1, [r7, #0]
 800011c:	6812      	ldr	r2, [r2, #0]
 800011e:	601a      	str	r2, [r3, #0]
 8000120:	683b      	ldr	r3, [r7, #0]
 8000122:	4a0b      	ldr	r2, [pc, #44]	@ (8000150 <Reset_Handler+0x50>)
 8000124:	4293      	cmp	r3, r2
 8000126:	d3f3      	bcc.n	8000110 <Reset_Handler+0x10>
 8000128:	4b0a      	ldr	r3, [pc, #40]	@ (8000154 <Reset_Handler+0x54>)
 800012a:	603b      	str	r3, [r7, #0]
 800012c:	e004      	b.n	8000138 <Reset_Handler+0x38>
 800012e:	683b      	ldr	r3, [r7, #0]
 8000130:	1d1a      	adds	r2, r3, #4
 8000132:	603a      	str	r2, [r7, #0]
 8000134:	2200      	movs	r2, #0
 8000136:	601a      	str	r2, [r3, #0]
 8000138:	683b      	ldr	r3, [r7, #0]
 800013a:	4a07      	ldr	r2, [pc, #28]	@ (8000158 <Reset_Handler+0x58>)
 800013c:	4293      	cmp	r3, r2
 800013e:	d3f6      	bcc.n	800012e <Reset_Handler+0x2e>
 8000140:	f7ff ffd2 	bl	80000e8 <main>
 8000144:	bf00      	nop
 8000146:	e7fd      	b.n	8000144 <Reset_Handler+0x44>
 8000148:	080005f0 			@ <UNDEFINED> instruction: 080005f0
 800014c:	20000000 			@ <UNDEFINED> instruction: 20000000
 8000150:	2000000c 			@ <UNDEFINED> instruction: 2000000c
 8000154:	20000010 			@ <UNDEFINED> instruction: 20000010
 8000158:	20000018 			@ <UNDEFINED> instruction: 20000018

0800015c <rcc_is_osc_ready>:
 800015c:	2806      	cmp	r0, #6
 800015e:	d82b      	bhi.n	80001b8 <rcc_is_osc_ready+0x5c>
 8000160:	e8df f000 	tbb	[pc, r0]
 8000164:	0a241e04 			@ <UNDEFINED> instruction: 0a241e04
 8000168:	001a1610 			@ <UNDEFINED> instruction: 001a1610
 800016c:	4b13      	ldr	r3, [pc, #76]	@ (80001bc <rcc_is_osc_ready+0x60>)
 800016e:	f8d3 0800 	ldr.w	r0, [r3, #2048]	@ 0x800
 8000172:	f3c0 6040 	ubfx	r0, r0, #25, #1
 8000176:	4770      	bx	lr
 8000178:	4b10      	ldr	r3, [pc, #64]	@ (80001bc <rcc_is_osc_ready+0x60>)
 800017a:	f8d3 0800 	ldr.w	r0, [r3, #2048]	@ 0x800
 800017e:	f3c0 4040 	ubfx	r0, r0, #17, #1
 8000182:	4770      	bx	lr
 8000184:	4b0d      	ldr	r3, [pc, #52]	@ (80001bc <rcc_is_osc_ready+0x60>)
 8000186:	f8d3 0800 	ldr.w	r0, [r3, #2048]	@ 0x800
 800018a:	f3c0 0040 	ubfx	r0, r0, #1, #1
 800018e:	4770      	bx	lr
 8000190:	4b0a      	ldr	r3, [pc, #40]	@ (80001bc <rcc_is_osc_ready+0x60>)
 8000192:	f8d3 0870 	ldr.w	r0, [r3, #2160]	@ 0x870
 8000196:	e7f8      	b.n	800018a <rcc_is_osc_ready+0x2e>
 8000198:	4b08      	ldr	r3, [pc, #32]	@ (80001bc <rcc_is_osc_ready+0x60>)
 800019a:	f8d3 0874 	ldr.w	r0, [r3, #2164]	@ 0x874
 800019e:	e7f4      	b.n	800018a <rcc_is_osc_ready+0x2e>
 80001a0:	4b06      	ldr	r3, [pc, #24]	@ (80001bc <rcc_is_osc_ready+0x60>)
 80001a2:	f8d3 0800 	ldr.w	r0, [r3, #2048]	@ 0x800
 80001a6:	f3c0 7040 	ubfx	r0, r0, #29, #1
 80001aa:	4770      	bx	lr
 80001ac:	4b03      	ldr	r3, [pc, #12]	@ (80001bc <rcc_is_osc_ready+0x60>)
 80001ae:	f8d3 0800 	ldr.w	r0, [r3, #2048]	@ 0x800
 80001b2:	f3c0 60c0 	ubfx	r0, r0, #27, #1
 80001b6:	4770      	bx	lr
 80001b8:	2000      	movs	r0, #0
 80001ba:	4770      	bx	lr
 80001bc:	40023000 			@ <UNDEFINED> instruction: 40023000

080001c0 <rcc_wait_for_osc_ready>:
 80001c0:	b508      	push	{r3, lr}
 80001c2:	4602      	mov	r2, r0
 80001c4:	4610      	mov	r0, r2
 80001c6:	f7ff ffc9 	bl	800015c <rcc_is_osc_ready>
 80001ca:	2800      	cmp	r0, #0
 80001cc:	d0fa      	beq.n	80001c4 <rcc_wait_for_osc_ready+0x4>
 80001ce:	bd08      	pop	{r3, pc}

080001d0 <rcc_osc_on>:
 80001d0:	2806      	cmp	r0, #6
 80001d2:	d80c      	bhi.n	80001ee <rcc_osc_on+0x1e>
 80001d4:	e8df f000 	tbb	[pc, r0]
 80001d8:	0c2e2804 			@ <UNDEFINED> instruction: 0c2e2804
 80001dc:	00201812 			@ <UNDEFINED> instruction: 00201812
 80001e0:	4a17      	ldr	r2, [pc, #92]	@ (8000240 <rcc_osc_on+0x70>)
 80001e2:	f8d2 3800 	ldr.w	r3, [r2, #2048]	@ 0x800
 80001e6:	f043 7380 	orr.w	r3, r3, #16777216	@ 0x1000000
 80001ea:	f8c2 3800 	str.w	r3, [r2, #2048]	@ 0x800
 80001ee:	4770      	bx	lr
 80001f0:	4a13      	ldr	r2, [pc, #76]	@ (8000240 <rcc_osc_on+0x70>)
 80001f2:	f8d2 3800 	ldr.w	r3, [r2, #2048]	@ 0x800
 80001f6:	f443 3380 	orr.w	r3, r3, #65536	@ 0x10000
 80001fa:	e7f6      	b.n	80001ea <rcc_osc_on+0x1a>
 80001fc:	4a10      	ldr	r2, [pc, #64]	@ (8000240 <rcc_osc_on+0x70>)
 80001fe:	f8d2 3800 	ldr.w	r3, [r2, #2048]	@ 0x800
 8000202:	f043 0301 	orr.w	r3, r3, #1
 8000206:	e7f0      	b.n	80001ea <rcc_osc_on+0x1a>
 8000208:	4a0d      	ldr	r2, [pc, #52]	@ (8000240 <rcc_osc_on+0x70>)
 800020a:	f8d2 3870 	ldr.w	r3, [r2, #2160]	@ 0x870
 800020e:	f043 0301 	orr.w	r3, r3, #1
 8000212:	f8c2 3870 	str.w	r3, [r2, #2160]	@ 0x870
 8000216:	4770      	bx	lr
 8000218:	4a09      	ldr	r2, [pc, #36]	@ (8000240 <rcc_osc_on+0x70>)
 800021a:	f8d2 3874 	ldr.w	r3, [r2, #2164]	@ 0x874
 800021e:	f043 0301 	orr.w	r3, r3, #1
 8000222:	f8c2 3874 	str.w	r3, [r2, #2164]	@ 0x874
 8000226:	4770      	bx	lr
 8000228:	4a05      	ldr	r2, [pc, #20]	@ (8000240 <rcc_osc_on+0x70>)
 800022a:	f8d2 3800 	ldr.w	r3, [r2, #2048]	@ 0x800
 800022e:	f043 5380 	orr.w	r3, r3, #268435456	@ 0x10000000
 8000232:	e7da      	b.n	80001ea <rcc_osc_on+0x1a>
 8000234:	4a02      	ldr	r2, [pc, #8]	@ (8000240 <rcc_osc_on+0x70>)
 8000236:	f8d2 3800 	ldr.w	r3, [r2, #2048]	@ 0x800
 800023a:	f043 6380 	orr.w	r3, r3, #67108864	@ 0x4000000
 800023e:	e7d4      	b.n	80001ea <rcc_osc_on+0x1a>
 8000240:	40023000 			@ <UNDEFINED> instruction: 40023000

08000244 <rcc_osc_off>:
 8000244:	2806      	cmp	r0, #6
 8000246:	d80c      	bhi.n	8000262 <rcc_osc_off+0x1e>
 8000248:	e8df f000 	tbb	[pc, r0]
 800024c:	0c2e2804 			@ <UNDEFINED> instruction: 0c2e2804
 8000250:	00201812 			@ <UNDEFINED> instruction: 00201812
 8000254:	4a17      	ldr	r2, [pc, #92]	@ (80002b4 <rcc_osc_off+0x70>)
 8000256:	f8d2 3800 	ldr.w	r3, [r2, #2048]	@ 0x800
 800025a:	f023 7380 	bic.w	r3, r3, #16777216	@ 0x1000000
 800025e:	f8c2 3800 	str.w	r3, [r2, #2048]	@ 0x800
 8000262:	4770      	bx	lr
 8000264:	4a13      	ldr	r2, [pc, #76]	@ (80002b4 <rcc_osc_off+0x70>)
 8000266:	f8d2 3800 	ldr.w	r3, [r2, #2048]	@ 0x800
 800026a:	f423 3380 	bic.w	r3, r3, #65536	@ 0x10000
 800026e:	e7f6      	b.n	800025e <rcc_osc_off+0x1a>
 8000270:	4a10      	ldr	r2, [pc, #64]	@ (80002b4 <rcc_osc_off+0x70>)
 8000272:	f8d2 3800 	ldr.w	r3, [r2, #2048]	@ 0x800
 8000276:	f023 0301 	bic.w	r3, r3, #1
 800027a:	e7f0      	b.n	800025e <rcc_osc_off+0x1a>
 800027c:	4a0d      	ldr	r2, [pc, #52]	@ (80002b4 <rcc_osc_off+0x70>)
 800027e:	f8d2 3870 	ldr.w	r3, [r2, #2160]	@ 0x870
 8000282:	f023 0301 	bic.w	r3, r3, #1
 8000286:	f8c2 3870 	str.w	r3, [r2, #2160]	@ 0x870
 800028a:	4770      	bx	lr
 800028c:	4a09      	ldr	r2, [pc, #36]	@ (80002b4 <rcc_osc_off+0x70>)
 800028e:	f8d2 3874 	ldr.w	r3, [r2, #2164]	@ 0x874
 8000292:	f023 0301 	bic.w	r3, r3, #1
 8000296:	f8c2 3874 	str.w	r3, [r2, #2164]	@ 0x874
 800029a:	4770      	bx	lr
 800029c:	4a05      	ldr	r2, [pc, #20]	@ (80002b4 <rcc_osc_off+0x70>)
 800029e:	f8d2 3800 	ldr.w	r3, [r2, #2048]	@ 0x800
 80002a2:	f023 5380 	bic.w	r3, r3, #268435456	@ 0x10000000
 80002a6:	e7da      	b.n	800025e <rcc_osc_off+0x1a>
 80002a8:	4a02      	ldr	r2, [pc, #8]	@ (80002b4 <rcc_osc_off+0x70>)
 80002aa:	f8d2 3800 	ldr.w	r3, [r2, #2048]	@ 0x800
 80002ae:	f023 6380 	bic.w	r3, r3, #67108864	@ 0x4000000
 80002b2:	e7d4      	b.n	800025e <rcc_osc_off+0x1a>
 80002b4:	40023000 			@ <UNDEFINED> instruction: 40023000

080002b8 <rcc_set_sysclk_source>:
 80002b8:	4a04      	ldr	r2, [pc, #16]	@ (80002cc <rcc_set_sysclk_source+0x14>)
 80002ba:	f8d2 3808 	ldr.w	r3, [r2, #2056]	@ 0x808
 80002be:	f023 0303 	bic.w	r3, r3, #3
 80002c2:	4303      	orrs	r3, r0
 80002c4:	f8c2 3808 	str.w	r3, [r2, #2056]	@ 0x808
 80002c8:	4770      	bx	lr
 80002ca:	bf00      	nop
 80002cc:	40023000 			@ <UNDEFINED> instruction: 40023000

080002d0 <rcc_set_ppre2>:
 80002d0:	4a04      	ldr	r2, [pc, #16]	@ (80002e4 <rcc_set_ppre2+0x14>)
 80002d2:	f8d2 3808 	ldr.w	r3, [r2, #2056]	@ 0x808
 80002d6:	f423 4360 	bic.w	r3, r3, #57344	@ 0xe000
 80002da:	ea43 3340 	orr.w	r3, r3, r0, lsl #13
 80002de:	f8c2 3808 	str.w	r3, [r2, #2056]	@ 0x808
 80002e2:	4770      	bx	lr
 80002e4:	40023000 			@ <UNDEFINED> instruction: 40023000

080002e8 <rcc_set_ppre1>:
 80002e8:	4a04      	ldr	r2, [pc, #16]	@ (80002fc <rcc_set_ppre1+0x14>)
 80002ea:	f8d2 3808 	ldr.w	r3, [r2, #2056]	@ 0x808
 80002ee:	f423 53e0 	bic.w	r3, r3, #7168	@ 0x1c00
 80002f2:	ea43 2380 	orr.w	r3, r3, r0, lsl #10
 80002f6:	f8c2 3808 	str.w	r3, [r2, #2056]	@ 0x808
 80002fa:	4770      	bx	lr
 80002fc:	40023000 			@ <UNDEFINED> instruction: 40023000

08000300 <rcc_set_hpre>:
 8000300:	4a04      	ldr	r2, [pc, #16]	@ (8000314 <rcc_set_hpre+0x14>)
 8000302:	f8d2 3808 	ldr.w	r3, [r2, #2056]	@ 0x808
 8000306:	f023 03f0 	bic.w	r3, r3, #240	@ 0xf0
 800030a:	ea43 1300 	orr.w	r3, r3, r0, lsl #4
 800030e:	f8c2 3808 	str.w	r3, [r2, #2056]	@ 0x808
 8000312:	4770      	bx	lr
 8000314:	40023000 			@ <UNDEFINED> instruction: 40023000

08000318 <rcc_set_main_pll_hsi>:
 8000318:	b510      	push	{r4, lr}
 800031a:	f647 74c0 	movw	r4, #32704	@ 0x7fc0
 800031e:	ea04 1481 	and.w	r4, r4, r1, lsl #6
 8000322:	f000 003f 	and.w	r0, r0, #63	@ 0x3f
 8000326:	061b      	lsls	r3, r3, #24
 8000328:	f003 6370 	and.w	r3, r3, #251658240	@ 0xf000000
 800032c:	4304      	orrs	r4, r0
 800032e:	431c      	orrs	r4, r3
 8000330:	9b02      	ldr	r3, [sp, #8]
 8000332:	0852      	lsrs	r2, r2, #1
 8000334:	2b02      	cmp	r3, #2
 8000336:	f102 32ff 	add.w	r2, r2, #4294967295
 800033a:	ea4f 4202 	mov.w	r2, r2, lsl #16
 800033e:	bf38      	it	cc
 8000340:	2302      	movcc	r3, #2
 8000342:	f402 3240 	and.w	r2, r2, #196608	@ 0x30000
 8000346:	071b      	lsls	r3, r3, #28
 8000348:	f003 43e0 	and.w	r3, r3, #1879048192	@ 0x70000000
 800034c:	4314      	orrs	r4, r2
 800034e:	431c      	orrs	r4, r3
 8000350:	4b01      	ldr	r3, [pc, #4]	@ (8000358 <rcc_set_main_pll_hsi+0x40>)
 8000352:	f8c3 4804 	str.w	r4, [r3, #2052]	@ 0x804
 8000356:	bd10      	pop	{r4, pc}
 8000358:	40023000 			@ <UNDEFINED> instruction: 40023000

0800035c <rcc_set_main_pll_hse>:
 800035c:	b510      	push	{r4, lr}
 800035e:	9c02      	ldr	r4, [sp, #8]
 8000360:	2c02      	cmp	r4, #2
 8000362:	bf38      	it	cc
 8000364:	2402      	movcc	r4, #2
 8000366:	0724      	lsls	r4, r4, #28
 8000368:	061b      	lsls	r3, r3, #24
 800036a:	f003 6370 	and.w	r3, r3, #251658240	@ 0xf000000
 800036e:	f004 44e0 	and.w	r4, r4, #1879048192	@ 0x70000000
 8000372:	0852      	lsrs	r2, r2, #1
 8000374:	431c      	orrs	r4, r3
 8000376:	f000 003f 	and.w	r0, r0, #63	@ 0x3f
 800037a:	f647 73c0 	movw	r3, #32704	@ 0x7fc0
 800037e:	3a01      	subs	r2, #1
 8000380:	ea03 1381 	and.w	r3, r3, r1, lsl #6
 8000384:	4304      	orrs	r4, r0
 8000386:	0412      	lsls	r2, r2, #16
 8000388:	431c      	orrs	r4, r3
 800038a:	f402 3240 	and.w	r2, r2, #196608	@ 0x30000
 800038e:	4b03      	ldr	r3, [pc, #12]	@ (800039c <rcc_set_main_pll_hse+0x40>)
 8000390:	4314      	orrs	r4, r2
 8000392:	f444 0480 	orr.w	r4, r4, #4194304	@ 0x400000
 8000396:	f8c3 4804 	str.w	r4, [r3, #2052]	@ 0x804
 800039a:	bd10      	pop	{r4, pc}
 800039c:	40023000 			@ <UNDEFINED> instruction: 40023000

080003a0 <rcc_clock_setup_pll>:
 80003a0:	b573      	push	{r0, r1, r4, r5, r6, lr}
 80003a2:	4604      	mov	r4, r0
 80003a4:	2004      	movs	r0, #4
 80003a6:	f7ff ff13 	bl	80001d0 <rcc_osc_on>
 80003aa:	f7ff ff09 	bl	80001c0 <rcc_wait_for_osc_ready>
 80003ae:	2000      	movs	r0, #0
 80003b0:	f7ff ff82 	bl	80002b8 <rcc_set_sysclk_source>
 80003b4:	79e3      	ldrb	r3, [r4, #7]
 80003b6:	2b01      	cmp	r3, #1
 80003b8:	d104      	bne.n	80003c4 <rcc_clock_setup_pll+0x24>
 80003ba:	2003      	movs	r0, #3
 80003bc:	f7ff ff08 	bl	80001d0 <rcc_osc_on>
 80003c0:	f7ff fefe 	bl	80001c0 <rcc_wait_for_osc_ready>
 80003c4:	f640 001c 	movw	r0, #2076	@ 0x81c
 80003c8:	f000 f8cc 	bl	8000564 <rcc_periph_clock_enable>
 80003cc:	7be0      	ldrb	r0, [r4, #15]
 80003ce:	f000 f8c1 	bl	8000554 <pwr_set_vos_scale>
 80003d2:	7b20      	ldrb	r0, [r4, #12]
 80003d4:	f7ff ff94 	bl	8000300 <rcc_set_hpre>
 80003d8:	7b60      	ldrb	r0, [r4, #13]
 80003da:	f7ff ff85 	bl	80002e8 <rcc_set_ppre1>
 80003de:	7ba0      	ldrb	r0, [r4, #14]
 80003e0:	f7ff ff76 	bl	80002d0 <rcc_set_ppre2>
 80003e4:	2000      	movs	r0, #0
 80003e6:	f7ff ff2d 	bl	8000244 <rcc_osc_off>
 80003ea:	79e6      	ldrb	r6, [r4, #7]
 80003ec:	79a5      	ldrb	r5, [r4, #6]
 80003ee:	7820      	ldrb	r0, [r4, #0]
 80003f0:	8861      	ldrh	r1, [r4, #2]
 80003f2:	7922      	ldrb	r2, [r4, #4]
 80003f4:	7963      	ldrb	r3, [r4, #5]
 80003f6:	9500      	str	r5, [sp, #0]
 80003f8:	2e01      	cmp	r6, #1
 80003fa:	d12f      	bne.n	800045c <rcc_clock_setup_pll+0xbc>
 80003fc:	f7ff ffae 	bl	800035c <rcc_set_main_pll_hse>
 8000400:	2000      	movs	r0, #0
 8000402:	f7ff fee5 	bl	80001d0 <rcc_osc_on>
 8000406:	f7ff fedb 	bl	80001c0 <rcc_wait_for_osc_ready>
 800040a:	68a3      	ldr	r3, [r4, #8]
 800040c:	055a      	lsls	r2, r3, #21
 800040e:	d528      	bpl.n	8000462 <rcc_clock_setup_pll+0xc2>
 8000410:	f000 f878 	bl	8000504 <flash_dcache_enable>
 8000414:	68a3      	ldr	r3, [r4, #8]
 8000416:	059b      	lsls	r3, r3, #22
 8000418:	d526      	bpl.n	8000468 <rcc_clock_setup_pll+0xc8>
 800041a:	f000 f887 	bl	800052c <flash_icache_enable>
 800041e:	68a0      	ldr	r0, [r4, #8]
 8000420:	f000 f864 	bl	80004ec <flash_set_ws>
 8000424:	2002      	movs	r0, #2
 8000426:	f7ff ff47 	bl	80002b8 <rcc_set_sysclk_source>
 800042a:	4a12      	ldr	r2, [pc, #72]	@ (8000474 <rcc_clock_setup_pll+0xd4>)
 800042c:	f8d2 3808 	ldr.w	r3, [r2, #2056]	@ 0x808
 8000430:	f003 030c 	and.w	r3, r3, #12
 8000434:	2b08      	cmp	r3, #8
 8000436:	d1f9      	bne.n	800042c <rcc_clock_setup_pll+0x8c>
 8000438:	4b0f      	ldr	r3, [pc, #60]	@ (8000478 <rcc_clock_setup_pll+0xd8>)
 800043a:	6922      	ldr	r2, [r4, #16]
 800043c:	601a      	str	r2, [r3, #0]
 800043e:	4b0f      	ldr	r3, [pc, #60]	@ (800047c <rcc_clock_setup_pll+0xdc>)
 8000440:	6962      	ldr	r2, [r4, #20]
 8000442:	601a      	str	r2, [r3, #0]
 8000444:	4b0e      	ldr	r3, [pc, #56]	@ (8000480 <rcc_clock_setup_pll+0xe0>)
 8000446:	69a2      	ldr	r2, [r4, #24]
 8000448:	601a      	str	r2, [r3, #0]
 800044a:	79e3      	ldrb	r3, [r4, #7]
 800044c:	2b01      	cmp	r3, #1
 800044e:	d10e      	bne.n	800046e <rcc_clock_setup_pll+0xce>
 8000450:	2004      	movs	r0, #4
 8000452:	b002      	add	sp, #8
 8000454:	e8bd 4070 	ldmia.w	sp!, {r4, r5, r6, lr}
 8000458:	f7ff bef4 	b.w	8000244 <rcc_osc_off>
 800045c:	f7ff ff5c 	bl	8000318 <rcc_set_main_pll_hsi>
 8000460:	e7ce      	b.n	8000400 <rcc_clock_setup_pll+0x60>
 8000462:	f000 f859 	bl	8000518 <flash_dcache_disable>
 8000466:	e7d5      	b.n	8000414 <rcc_clock_setup_pll+0x74>
 8000468:	f000 f86a 	bl	8000540 <flash_icache_disable>
 800046c:	e7d7      	b.n	800041e <rcc_clock_setup_pll+0x7e>
 800046e:	b002      	add	sp, #8
 8000470:	bd70      	pop	{r4, r5, r6, pc}
 8000472:	bf00      	nop
 8000474:	40023000 			@ <UNDEFINED> instruction: 40023000
 8000478:	20000008 			@ <UNDEFINED> instruction: 20000008
 800047c:	20000004 			@ <UNDEFINED> instruction: 20000004
 8000480:	20000000 			@ <UNDEFINED> instruction: 20000000

08000484 <systick_set_clocksource>:
 8000484:	f04f 22e0 	mov.w	r2, #3758153728	@ 0xe000e000
 8000488:	f000 0004 	and.w	r0, r0, #4
 800048c:	6913      	ldr	r3, [r2, #16]
 800048e:	f023 0304 	bic.w	r3, r3, #4
 8000492:	4303      	orrs	r3, r0
 8000494:	6113      	str	r3, [r2, #16]
 8000496:	4770      	bx	lr

08000498 <systick_set_frequency>:
 8000498:	b508      	push	{r3, lr}
 800049a:	fbb1 f1f0 	udiv	r1, r1, r0
 800049e:	4b0b      	ldr	r3, [pc, #44]	@ (80004cc <systick_set_frequency+0x34>)
 80004a0:	4299      	cmp	r1, r3
 80004a2:	d810      	bhi.n	80004c6 <systick_set_frequency+0x2e>
 80004a4:	f06f 437f 	mvn.w	r3, #4278190080	@ 0xff000000
 80004a8:	4299      	cmp	r1, r3
 80004aa:	bf26      	itte	cs
 80004ac:	08c9      	lsrcs	r1, r1, #3
 80004ae:	2000      	movcs	r0, #0
 80004b0:	2004      	movcc	r0, #4
 80004b2:	f7ff ffe7 	bl	8000484 <systick_set_clocksource>
 80004b6:	3901      	subs	r1, #1
 80004b8:	f04f 23e0 	mov.w	r3, #3758153728	@ 0xe000e000
 80004bc:	f021 417f 	bic.w	r1, r1, #4278190080	@ 0xff000000
 80004c0:	6159      	str	r1, [r3, #20]
 80004c2:	2001      	movs	r0, #1
 80004c4:	bd08      	pop	{r3, pc}
 80004c6:	2000      	movs	r0, #0
 80004c8:	e7fc      	b.n	80004c4 <systick_set_frequency+0x2c>
 80004ca:	bf00      	nop
 80004cc:	07fffff7 			@ <UNDEFINED> instruction: 07fffff7

080004d0 <systick_interrupt_enable>:
 80004d0:	f04f 22e0 	mov.w	r2, #3758153728	@ 0xe000e000
 80004d4:	6913      	ldr	r3, [r2, #16]
 80004d6:	f043 0302 	orr.w	r3, r3, #2
 80004da:	6113      	str	r3, [r2, #16]
 80004dc:	4770      	bx	lr

080004de <systick_counter_enable>:
 80004de:	f04f 22e0 	mov.w	r2, #3758153728	@ 0xe000e000
 80004e2:	6913      	ldr	r3, [r2, #16]
 80004e4:	f043 0301 	orr.w	r3, r3, #1
 80004e8:	6113      	str	r3, [r2, #16]
 80004ea:	4770      	bx	lr

080004ec <flash_set_ws>:
 80004ec:	4a04      	ldr	r2, [pc, #16]	@ (8000500 <flash_set_ws+0x14>)
 80004ee:	f8d2 3c00 	ldr.w	r3, [r2, #3072]	@ 0xc00
 80004f2:	f023 030f 	bic.w	r3, r3, #15
 80004f6:	4303      	orrs	r3, r0
 80004f8:	f8c2 3c00 	str.w	r3, [r2, #3072]	@ 0xc00
 80004fc:	4770      	bx	lr
 80004fe:	bf00      	nop
 8000500:	40023000 			@ <UNDEFINED> instruction: 40023000

08000504 <flash_dcache_enable>:
 8000504:	4a03      	ldr	r2, [pc, #12]	@ (8000514 <flash_dcache_enable+0x10>)
 8000506:	f8d2 3c00 	ldr.w	r3, [r2, #3072]	@ 0xc00
 800050a:	f443 6380 	orr.w	r3, r3, #1024	@ 0x400
 800050e:	f8c2 3c00 	str.w	r3, [r2, #3072]	@ 0xc00
 8000512:	4770      	bx	lr
 8000514:	40023000 			@ <UNDEFINED> instruction: 40023000

08000518 <flash_dcache_disable>:
 8000518:	4a03      	ldr	r2, [pc, #12]	@ (8000528 <flash_dcache_disable+0x10>)
 800051a:	f8d2 3c00 	ldr.w	r3, [r2, #3072]	@ 0xc00
 800051e:	f423 6380 	bic.w	r3, r3, #1024	@ 0x400
 8000522:	f8c2 3c00 	str.w	r3, [r2, #3072]	@ 0xc00
 8000526:	4770      	bx	lr
 8000528:	40023000 			@ <UNDEFINED> instruction: 40023000

0800052c <flash_icache_enable>:
 800052c:	4a03      	ldr	r2, [pc, #12]	@ (800053c <flash_icache_enable+0x10>)
 800052e:	f8d2 3c00 	ldr.w	r3, [r2, #3072]	@ 0xc00
 8000532:	f443 7300 	orr.w	r3, r3, #512	@ 0x200
 8000536:	f8c2 3c00 	str.w	r3, [r2, #3072]	@ 0xc00
 800053a:	4770      	bx	lr
 800053c:	40023000 			@ <UNDEFINED> instruction: 40023000

08000540 <flash_icache_disable>:
 8000540:	4a03      	ldr	r2, [pc, #12]	@ (8000550 <flash_icache_disable+0x10>)
 8000542:	f8d2 3c00 	ldr.w	r3, [r2, #3072]	@ 0xc00
 8000546:	f423 7300 	bic.w	r3, r3, #512	@ 0x200
 800054a:	f8c2 3c00 	str.w	r3, [r2, #3072]	@ 0xc00
 800054e:	4770      	bx	lr
 8000550:	40023000 			@ <UNDEFINED> instruction: 40023000

08000554 <pwr_set_vos_scale>:
 8000554:	4a02      	ldr	r2, [pc, #8]	@ (8000560 <pwr_set_vos_scale+0xc>)
 8000556:	6813      	ldr	r3, [r2, #0]
 8000558:	f360 338f 	bfi	r3, r0, #14, #2
 800055c:	6013      	str	r3, [r2, #0]
 800055e:	4770      	bx	lr
 8000560:	40007000 			@ <UNDEFINED> instruction: 40007000

08000564 <rcc_periph_clock_enable>:
 8000564:	0943      	lsrs	r3, r0, #5
 8000566:	f103 4380 	add.w	r3, r3, #1073741824	@ 0x40000000
 800056a:	f503 330e 	add.w	r3, r3, #145408	@ 0x23800
 800056e:	f000 001f 	and.w	r0, r0, #31
 8000572:	6819      	ldr	r1, [r3, #0]
 8000574:	2201      	movs	r2, #1
 8000576:	4082      	lsls	r2, r0
 8000578:	430a      	orrs	r2, r1
 800057a:	601a      	str	r2, [r3, #0]
 800057c:	4770      	bx	lr
	...
